; Function Attrs: mustprogress uwtable
define noundef range(i32 0, 21) i32 @_Z29pcouple_min_integration_steps16PressureCoupling(i32 noundef %0) local_unnamed_addr #1 personality ptr @__gxx_personality_v0 {
  %2 = alloca %"class.std::__cxx11::basic_string", align 8
  %3 = alloca %"class.std::allocator", align 1
  %4 = alloca %"class.std::filesystem::__cxx11::path", align 8
  %5 = icmp ult i32 %0, 6
  br i1 %5, label %switch.lookup, label %6

6:                                                ; preds = %1
  call void @llvm.lifetime.start.p0(i64 32, ptr nonnull %2) #24
  call void @llvm.lifetime.start.p0(i64 1, ptr nonnull %3) #24
  call void @_ZNSt7__cxx1112basic_stringIcSt11char_traitsIcESaIcEEC2IS3_EEPKcRKS3_(ptr noundef nonnull align 8 dereferenceable(32) %2, ptr noundef nonnull @.str.11, ptr noundef nonnull align 1 dereferenceable(1) %3)
  call void @llvm.lifetime.start.p0(i64 40, ptr nonnull %4) #24
  invoke void @_ZNSt10filesystem7__cxx114pathC2IA126_cS1_EERKT_NS1_6formatE(ptr noundef nonnull align 8 dereferenceable(40) %4, ptr noundef nonnull align 1 dereferenceable(126) @.str.10, i8 noundef zeroext 2)
          to label %7 unwind label %9

7:                                                ; preds = %6
  invoke void @_Z18gmx_error_functionPKcRKNSt7__cxx1112basic_stringIcSt11char_traitsIcESaIcEEERKNSt10filesystem7__cxx114pathEi(ptr noundef nonnull @.str.8, ptr noundef nonnull align 8 dereferenceable(32) %2, ptr noundef nonnull align 8 dereferenceable(40) %4, i32 noundef 185) #23
          to label %8 unwind label %11

8:                                                ; preds = %7
  unreachable

9:                                                ; preds = %6
  %10 = landingpad { ptr, i32 }
          cleanup
  br label %13

11:                                               ; preds = %7
  %12 = landingpad { ptr, i32 }
          cleanup
  call void @_ZNSt10filesystem7__cxx114pathD2Ev(ptr noundef nonnull align 8 dereferenceable(40) %4) #24
  br label %13

13:                                               ; preds = %11, %9
  %.pn = phi { ptr, i32 } [ %12, %11 ], [ %10, %9 ]
  call void @llvm.lifetime.end.p0(i64 40, ptr nonnull %4) #24
  %14 = load ptr, ptr %2, align 8, !tbaa !12
  %15 = getelementptr inbounds nuw i8, ptr %2, i64 16
  %16 = icmp eq ptr %14, %15
  br i1 %16, label %_ZNKSt7__cxx1112basic_stringIcSt11char_traitsIcESaIcEE11_M_is_localEv.exit.thread.i.i, label %_ZNKSt7__cxx1112basic_stringIcSt11char_traitsIcESaIcEE11_M_is_localEv.exit.i.i

_ZNKSt7__cxx1112basic_stringIcSt11char_traitsIcESaIcEE11_M_is_localEv.exit.thread.i.i: ; preds = %13
  %17 = getelementptr inbounds nuw i8, ptr %2, i64 8
  %18 = load i64, ptr %17, align 8, !tbaa !15
  %19 = icmp ult i64 %18, 16
  call void @llvm.assume(i1 %19)
  br label %_ZNSt7__cxx1112basic_stringIcSt11char_traitsIcESaIcEED2Ev.exit

_ZNKSt7__cxx1112basic_stringIcSt11char_traitsIcESaIcEE11_M_is_localEv.exit.i.i: ; preds = %13
  %20 = load i64, ptr %15, align 8, !tbaa !14
  %21 = add i64 %20, 1
  call void @_ZdlPvm(ptr noundef %14, i64 noundef %21) #25
  br label %_ZNSt7__cxx1112basic_stringIcSt11char_traitsIcESaIcEED2Ev.exit

_ZNSt7__cxx1112basic_stringIcSt11char_traitsIcESaIcEED2Ev.exit: ; preds = %_ZNKSt7__cxx1112basic_stringIcSt11char_traitsIcESaIcEE11_M_is_localEv.exit.i.i, %_ZNKSt7__cxx1112basic_stringIcSt11char_traitsIcESaIcEE11_M_is_localEv.exit.thread.i.i
  call void @llvm.lifetime.end.p0(i64 1, ptr nonnull %3) #24
  call void @llvm.lifetime.end.p0(i64 32, ptr nonnull %2) #24
  resume { ptr, i32 } %.pn

switch.lookup:                                    ; preds = %1
  %22 = zext nneg i32 %0 to i64
  %switch.gep = getelementptr inbounds nuw [6 x i32], ptr @switch.table._Z29pcouple_min_integration_steps16PressureCoupling, i64 0, i64 %22
  %switch.load = load i32, ptr %switch.gep, align 4
  ret i32 %switch.load
}